Certificate:
    Data:
        Version: 1 (0x0)
        Serial Number: 1 (0x1)
    Signature Algorithm: sha1WithRSAEncryption
        Issuer: CN=Test CA for JDBC SSL regression test client certs
        Validity
            Not Before: Sep 12 14:35:51 2018 GMT
            Not After : Jan 28 14:35:51 2046 GMT
        Subject: CN=ssltestuser
        Subject Public Key Info:
            Public Key Algorithm: rsaEncryption
                Public-Key: (1024 bit)
                Modulus:
                    00:b9:da:98:b8:58:a4:ac:83:dc:60:00:07:1d:cb:
                    e1:23:52:a2:c6:fd:c0:44:81:74:45:91:5b:8b:d4:
                    c2:01:56:b2:31:25:57:84:d3:51:15:56:5f:81:8b:
                    28:2c:8d:2b:2c:81:30:75:94:df:b6:23:d5:98:b6:
                    00:dc:e0:c6:17:eb:ce:e6:af:33:b2:0a:d4:1c:8e:
                    36:1f:bb:aa:57:94:18:bc:45:52:1b:da:f3:dd:0f:
                    ec:d3:53:74:53:09:a1:36:ba:2a:5a:ac:07:a0:2f:
                    d5:88:8f:b8:e9:97:03:3b:61:b2:c5:e7:b9:f4:2a:
                    33:c1:ed:69:95:7d:2b:45:91
                Exponent: 65537 (0x10001)
    Signature Algorithm: sha1WithRSAEncryption
         a7:32:1d:9e:e4:e0:74:ca:f4:bf:26:7a:34:05:eb:20:07:3f:
         68:05:e6:92:3f:ec:76:4c:5f:59:f1:6d:f3:8d:16:eb:13:7b:
         55:62:70:87:41:4d:a6:6a:33:36:ae:00:50:40:4b:0a:53:e9:
         3b:fe:c4:44:fc:dd:bc:7e:4b:9a:76:e2:bf:70:95:8b:86:21:
         e8:c1:34:a0:72:b6:39:fe:6b:f8:ba:60:06:1a:2e:de:38:b7:
         e8:42:70:8f:77:c4:fc:73:81:81:07:89:26:1c:ce:41:be:9b:
         72:ca:8a:37:f6:3b:60:0c:94:db:63:67:31:4c:55:ae:27:e0:
         9d:f9
-----BEGIN CERTIFICATE-----
MIIBwTCCASoCAQEwDQYJKoZIhvcNAQEFBQAwPDE6MDgGA1UEAwwxVGVzdCBDQSBm
b3IgSkRCQyBTU0wgcmVncmVzc2lvbiB0ZXN0IGNsaWVudCBjZXJ0czAeFw0xODA5
MTIxNDM1NTFaFw00NjAxMjgxNDM1NTFaMBYxFDASBgNVBAMMC3NzbHRlc3R1c2Vy
MIGfMA0GCSqGSIb3DQEBAQUAA4GNADCBiQKBgQC52pi4WKSsg9xgAAcdy+EjUqLG
/cBEgXRFkVuL1MIBVrIxJVeE01EVVl+BiygsjSssgTB1lN+2I9WYtgDc4MYX687m
rzOyCtQcjjYfu6pXlBi8RVIb2vPdD+zTU3RTCaE2uiparAegL9WIj7jplwM7YbLF
57n0KjPB7WmVfStFkQIDAQABMA0GCSqGSIb3DQEBBQUAA4GBAKcyHZ7k4HTK9L8m
ejQF6yAHP2gF5pI/7HZMX1nxbfONFusTe1VicIdBTaZqMzauAFBASwpT6Tv+xET8
3bx+S5p24r9wlYuGIejBNKBytjn+a/i6YAYaLt44t+hCcI93xPxzgYEHiSYczkG+
m3LKijf2O2AMlNtjZzFMVa4n4J35
-----END CERTIFICATE-----
